target datalayout = "e-m:e-p270:32:32-p271:32:32-p272:64:64-i64:64-i128:128-f80:128-n8:16:32:64-S128"
target triple = "x86_64-pc-linux-gnu"

@OnigEncISO_8859_1_ToLowerCaseTable = external constant [0 x i8], align 1

; Function Attrs: nounwind uwtable
define internal i32 @mbc_case_fold(i32 noundef %0, ptr noundef %1, ptr noundef %2, ptr noundef %3) #1 {
  %5 = alloca i32, align 4
  %6 = alloca i32, align 4
  %7 = alloca ptr, align 8
  %8 = alloca ptr, align 8
  %9 = alloca ptr, align 8
  %10 = alloca ptr, align 8
  %11 = alloca i32, align 4
  store i32 %0, ptr %6, align 4, !tbaa !4
  store ptr %1, ptr %7, align 8, !tbaa !8
  store ptr %2, ptr %8, align 8, !tbaa !11
  store ptr %3, ptr %9, align 8, !tbaa !11
  call void @llvm.lifetime.start.p0(i64 8, ptr %10) #3
  %12 = load ptr, ptr %7, align 8, !tbaa !8
  %13 = load ptr, ptr %12, align 8, !tbaa !11
  store ptr %13, ptr %10, align 8, !tbaa !11
  %14 = load ptr, ptr %10, align 8, !tbaa !11
  %15 = load i8, ptr %14, align 1, !tbaa !13
  %16 = zext i8 %15 to i32
  %17 = icmp eq i32 %16, 223
  br i1 %17, label %18, label %29

18:                                               ; preds = %4
  %19 = load i32, ptr %6, align 4, !tbaa !4
  %20 = and i32 %19, 1073741824
  %21 = icmp ne i32 %20, 0
  br i1 %21, label %22, label %29

22:                                               ; preds = %18
  %23 = load ptr, ptr %9, align 8, !tbaa !11
  %24 = getelementptr inbounds nuw i8, ptr %23, i32 1
  store ptr %24, ptr %9, align 8, !tbaa !11
  store i8 115, ptr %23, align 1, !tbaa !13
  %25 = load ptr, ptr %9, align 8, !tbaa !11
  store i8 115, ptr %25, align 1, !tbaa !13
  %26 = load ptr, ptr %7, align 8, !tbaa !8
  %27 = load ptr, ptr %26, align 8, !tbaa !11
  %28 = getelementptr inbounds nuw i8, ptr %27, i32 1
  store ptr %28, ptr %26, align 8, !tbaa !11
  store i32 2, ptr %5, align 4
  store i32 1, ptr %11, align 4
  br label %53

29:                                               ; preds = %18, %4
  %30 = load i32, ptr %6, align 4, !tbaa !4
  %31 = and i32 %30, 1
  %32 = icmp eq i32 %31, 0
  br i1 %32, label %38, label %33

33:                                               ; preds = %29
  %34 = load ptr, ptr %10, align 8, !tbaa !11
  %35 = load i8, ptr %34, align 1, !tbaa !13
  %36 = zext i8 %35 to i32
  %37 = icmp slt i32 %36, 128
  br i1 %37, label %38, label %45

38:                                               ; preds = %33, %29
  %39 = load ptr, ptr %10, align 8, !tbaa !11
  %40 = load i8, ptr %39, align 1, !tbaa !13
  %41 = zext i8 %40 to i64
  %42 = getelementptr inbounds nuw [0 x i8], ptr @OnigEncISO_8859_1_ToLowerCaseTable, i64 0, i64 %41
  %43 = load i8, ptr %42, align 1, !tbaa !13
  %44 = load ptr, ptr %9, align 8, !tbaa !11
  store i8 %43, ptr %44, align 1, !tbaa !13
  br label %49

45:                                               ; preds = %33
  %46 = load ptr, ptr %10, align 8, !tbaa !11
  %47 = load i8, ptr %46, align 1, !tbaa !13
  %48 = load ptr, ptr %9, align 8, !tbaa !11
  store i8 %47, ptr %48, align 1, !tbaa !13
  br label %49

49:                                               ; preds = %45, %38
  %50 = load ptr, ptr %7, align 8, !tbaa !8
  %51 = load ptr, ptr %50, align 8, !tbaa !11
  %52 = getelementptr inbounds nuw i8, ptr %51, i32 1
  store ptr %52, ptr %50, align 8, !tbaa !11
  store i32 1, ptr %5, align 4
  store i32 1, ptr %11, align 4
  br label %53

53:                                               ; preds = %49, %22
  call void @llvm.lifetime.end.p0(i64 8, ptr %10) #3
  %54 = load i32, ptr %5, align 4
  ret i32 %54
}